target datalayout = "e-m:e-p270:32:32-p271:32:32-p272:64:64-i64:64-i128:128-f80:128-n8:16:32:64-S128"
target triple = "x86_64-pc-linux-gnu"

%class.outputStream = type { ptr, i32, i8, i32, i64, %class.TimeStamp, ptr, i64 }
%class.TimeStamp = type { i64 }
%class.defaultStream = type { %class.xmlTextStream, i8, ptr, i64, i64 }
%class.xmlTextStream = type { %class.outputStream, ptr }
%class.xmlStream = type { %class.outputStream, ptr, i64, i32, ptr, %class.xmlTextStream }

@.str.39 = private unnamed_addr constant [4 x i8] c"tty\00", align 1
@.str.40 = private unnamed_addr constant [12 x i8] c"hotspot_log\00", align 1

; Function Attrs: mustprogress nounwind uwtable
define linkonce_odr hidden noundef ptr @_ZN9xmlStream3outEv(ptr noundef nonnull align 8 dereferenceable(152) %0) #1 comdat align 2 {
  %2 = alloca ptr, align 8
  store ptr %0, ptr %2, align 8
  %3 = load ptr, ptr %2, align 8
  %4 = getelementptr inbounds %class.xmlStream, ptr %3, i32 0, i32 1
  %5 = load ptr, ptr %4, align 8
  ret ptr %5
}

; Function Attrs: mustprogress nounwind uwtable
define hidden void @_ZN13defaultStream19finish_log_on_errorEPci(ptr noundef nonnull align 8 dereferenceable(96) %0, ptr noundef %1, i32 noundef %2) #1 align 2 {
  %4 = alloca ptr, align 8
  %5 = alloca ptr, align 8
  %6 = alloca i32, align 4
  %7 = alloca ptr, align 8
  %8 = alloca ptr, align 8
  store ptr %0, ptr %4, align 8
  store ptr %1, ptr %5, align 8
  store i32 %2, ptr %6, align 4
  %9 = load ptr, ptr %4, align 8
  %10 = getelementptr inbounds %class.xmlTextStream, ptr %9, i32 0, i32 1
  %11 = load ptr, ptr %10, align 8
  store ptr %11, ptr %7, align 8
  %12 = load ptr, ptr %7, align 8
  %13 = icmp ne ptr %12, null
  br i1 %13, label %14, label %41

14:                                               ; preds = %3
  %15 = load ptr, ptr %7, align 8
  %16 = call noundef ptr @_ZN9xmlStream3outEv(ptr noundef nonnull align 8 dereferenceable(152) %15)
  %17 = icmp ne ptr %16, null
  br i1 %17, label %18, label %41

18:                                               ; preds = %14
  %19 = load ptr, ptr %7, align 8
  call void @_ZN9xmlStream8done_rawEPKc(ptr noundef nonnull align 8 dereferenceable(152) %19, ptr noundef @.str.39)
  %20 = load ptr, ptr %7, align 8
  %21 = call noundef ptr @_ZN9xmlStream3outEv(ptr noundef nonnull align 8 dereferenceable(152) %20)
  %22 = load ptr, ptr %5, align 8
  %23 = load i32, ptr %6, align 4
  call void @_ZN10CompileLog19finish_log_on_errorEP12outputStreamPci(ptr noundef %21, ptr noundef %22, i32 noundef %23)
  %24 = load ptr, ptr %7, align 8
  call void @_ZN9xmlStream8done_rawEPKc(ptr noundef nonnull align 8 dereferenceable(152) %24, ptr noundef @.str.40)
  %25 = load ptr, ptr %7, align 8
  %26 = load ptr, ptr %25, align 8
  %27 = getelementptr inbounds ptr, ptr %26, i64 0
  %28 = load ptr, ptr %27, align 8
  call void %28(ptr noundef nonnull align 8 dereferenceable(152) %25)
  %29 = getelementptr inbounds %class.defaultStream, ptr %9, i32 0, i32 2
  %30 = load ptr, ptr %29, align 8
  store ptr %30, ptr %8, align 8
  %31 = getelementptr inbounds %class.defaultStream, ptr %9, i32 0, i32 2
  store ptr null, ptr %31, align 8
  %32 = getelementptr inbounds %class.xmlTextStream, ptr %9, i32 0, i32 1
  store ptr null, ptr %32, align 8
  %33 = load ptr, ptr %8, align 8
  %34 = icmp ne ptr %33, null
  br i1 %34, label %35, label %40

35:                                               ; preds = %18
  %36 = load ptr, ptr %8, align 8
  %37 = load ptr, ptr %36, align 8
  %38 = getelementptr inbounds ptr, ptr %37, i64 0
  %39 = load ptr, ptr %38, align 8
  call void %39(ptr noundef nonnull align 8 dereferenceable(65) %36)
  br label %40

40:                                               ; preds = %35, %18
  br label %41

41:                                               ; preds = %40, %14, %3
  ret void
}