; Function Attrs: mustprogress nounwind uwtable
define hidden void @_ZN13defaultStream19finish_log_on_errorEPci(ptr nocapture noundef nonnull align 8 dereferenceable(96) %0, ptr noundef %1, i32 noundef %2) local_unnamed_addr #0 align 2 {
  %4 = getelementptr inbounds i8, ptr %0, i64 56
  %5 = load ptr, ptr %4, align 8
  %.not = icmp eq ptr %5, null
  br i1 %.not, label %18, label %6

6:                                                ; preds = %3
  %7 = getelementptr inbounds i8, ptr %5, i64 56
  %8 = load ptr, ptr %7, align 8
  %.not11 = icmp eq ptr %8, null
  br i1 %.not11, label %18, label %9

9:                                                ; preds = %6
  tail call void @_ZN9xmlStream8done_rawEPKc(ptr noundef nonnull align 8 dereferenceable(152) %5, ptr noundef nonnull @.str.39) #21
  %10 = load ptr, ptr %7, align 8
  tail call void @_ZN10CompileLog19finish_log_on_errorEP12outputStreamPci(ptr noundef %10, ptr noundef %1, i32 noundef %2) #21
  tail call void @_ZN9xmlStream8done_rawEPKc(ptr noundef nonnull align 8 dereferenceable(152) %5, ptr noundef nonnull @.str.40) #21
  %11 = load ptr, ptr %5, align 8
  %12 = load ptr, ptr %11, align 8
  tail call void %12(ptr noundef nonnull align 8 dereferenceable(152) %5) #21
  %13 = getelementptr inbounds i8, ptr %0, i64 72
  %14 = load ptr, ptr %13, align 8
  store ptr null, ptr %13, align 8
  store ptr null, ptr %4, align 8
  %.not12 = icmp eq ptr %14, null
  br i1 %.not12, label %18, label %15

15:                                               ; preds = %9
  %16 = load ptr, ptr %14, align 8
  %17 = load ptr, ptr %16, align 8
  tail call void %17(ptr noundef nonnull align 8 dereferenceable(65) %14) #21
  br label %18

18:                                               ; preds = %9, %15, %6, %3
  ret void
}